target datalayout = "e-m:e-p270:32:32-p271:32:32-p272:64:64-i64:64-i128:128-f80:128-n8:16:32:64-S128"
target triple = "x86_64-pc-linux-gnu"

%class.PcDescCache = type { [4 x ptr] }

; Function Attrs: mustprogress nounwind uwtable
define hidden void @_ZN11PcDescCache11add_pc_descEP6PcDesc(ptr noundef nonnull align 8 dereferenceable(32) %0, ptr noundef %1) #1 align 2 {
  %3 = alloca ptr, align 8
  %4 = alloca ptr, align 8
  %5 = alloca i32, align 4
  %6 = alloca ptr, align 8
  store ptr %0, ptr %3, align 8
  store ptr %1, ptr %4, align 8
  %7 = load ptr, ptr %3, align 8
  store i32 0, ptr %5, align 4
  br label %8

8:                                                ; preds = %23, %2
  %9 = load i32, ptr %5, align 4
  %10 = icmp slt i32 %9, 4
  br i1 %10, label %11, label %26

11:                                               ; preds = %8
  %12 = getelementptr inbounds %class.PcDescCache, ptr %7, i32 0, i32 0
  %13 = load i32, ptr %5, align 4
  %14 = sext i32 %13 to i64
  %15 = getelementptr inbounds [4 x ptr], ptr %12, i64 0, i64 %14
  %16 = load volatile ptr, ptr %15, align 8
  store ptr %16, ptr %6, align 8
  %17 = load ptr, ptr %4, align 8
  %18 = getelementptr inbounds %class.PcDescCache, ptr %7, i32 0, i32 0
  %19 = load i32, ptr %5, align 4
  %20 = sext i32 %19 to i64
  %21 = getelementptr inbounds [4 x ptr], ptr %18, i64 0, i64 %20
  store volatile ptr %17, ptr %21, align 8
  %22 = load ptr, ptr %6, align 8
  store ptr %22, ptr %4, align 8
  br label %23

23:                                               ; preds = %11
  %24 = load i32, ptr %5, align 4
  %25 = add nsw i32 %24, 1
  store i32 %25, ptr %5, align 4
  br label %8, !llvm.loop !10

26:                                               ; preds = %8
  ret void
}