; Function Attrs: mustprogress nofree norecurse nounwind memory(argmem: readwrite, inaccessiblemem: readwrite) uwtable
define hidden void @_ZN11PcDescCache11add_pc_descEP6PcDesc(ptr noundef nonnull align 8 dereferenceable(32) %0, ptr noundef %1) local_unnamed_addr #2 align 2 {
  br label %3

3:                                                ; preds = %2, %3
  %indvars.iv = phi i64 [ 0, %2 ], [ %indvars.iv.next, %3 ]
  %.08 = phi ptr [ %1, %2 ], [ %5, %3 ]
  %4 = getelementptr inbounds [4 x ptr], ptr %0, i64 0, i64 %indvars.iv
  %5 = load volatile ptr, ptr %4, align 8
  store volatile ptr %.08, ptr %4, align 8
  %indvars.iv.next = add nuw nsw i64 %indvars.iv, 1
  %exitcond.not = icmp eq i64 %indvars.iv.next, 4
  br i1 %exitcond.not, label %6, label %3, !llvm.loop !11

6:                                                ; preds = %3
  ret void
}